target datalayout = "e-m:e-p270:32:32-p271:32:32-p272:64:64-i64:64-i128:128-f80:128-n8:16:32:64-S128"
target triple = "x86_64-pc-linux-gnu"

%struct.XLogRecord = type { i32, i32, i64, i8, i8, i32 }

@.str.6 = private unnamed_addr constant [15 x i8] c"xlogrecovery.c\00", align 1
@.str.179 = private unnamed_addr constant [28 x i8] c"invalid checkpoint location\00", align 1
@__func__.ReadCheckpointRecord = private unnamed_addr constant [21 x i8] c"ReadCheckpointRecord\00", align 1
@.str.180 = private unnamed_addr constant [26 x i8] c"invalid checkpoint record\00", align 1
@.str.181 = private unnamed_addr constant [49 x i8] c"invalid resource manager ID in checkpoint record\00", align 1
@.str.182 = private unnamed_addr constant [37 x i8] c"invalid xl_info in checkpoint record\00", align 1
@.str.183 = private unnamed_addr constant [36 x i8] c"invalid length of checkpoint record\00", align 1

; Function Attrs: nounwind uwtable
define internal ptr @ReadCheckpointRecord(ptr noundef %0, i64 noundef %1, i32 noundef %2) #0 {
  %4 = alloca ptr, align 8
  %5 = alloca ptr, align 8
  %6 = alloca i64, align 8
  %7 = alloca i32, align 4
  %8 = alloca ptr, align 8
  %9 = alloca i8, align 1
  %10 = alloca i32, align 4
  store ptr %0, ptr %5, align 8
  store i64 %1, ptr %6, align 8
  store i32 %2, ptr %7, align 4
  call void @llvm.lifetime.start.p0(i64 8, ptr %8) #14
  call void @llvm.lifetime.start.p0(i64 1, ptr %9) #14
  %11 = load i64, ptr %6, align 8
  %12 = urem i64 %11, 8192
  %13 = icmp uge i64 %12, 24
  br i1 %13, label %25, label %14

14:                                               ; preds = %3
  br label %15

15:                                               ; preds = %14
  br i1 false, label %16, label %18

16:                                               ; preds = %15
  %17 = call zeroext i1 @errstart_cold(i32 noundef 15, ptr noundef null) #15
  br i1 %17, label %20, label %22

18:                                               ; preds = %15
  %19 = call zeroext i1 @errstart(i32 noundef 15, ptr noundef null)
  br i1 %19, label %20, label %22

20:                                               ; preds = %18, %16
  %21 = call i32 (ptr, ...) @errmsg(ptr noundef @.str.179)
  call void @errfinish(ptr noundef @.str.6, i32 noundef 4074, ptr noundef @__func__.ReadCheckpointRecord)
  br label %22

22:                                               ; preds = %20, %18, %16
  br label %23

23:                                               ; preds = %22
  br label %24

24:                                               ; preds = %23
  store ptr null, ptr %4, align 8
  store i32 1, ptr %10, align 4
  br label %105

25:                                               ; preds = %3
  %26 = load ptr, ptr %5, align 8
  %27 = load i64, ptr %6, align 8
  call void @XLogPrefetcherBeginRead(ptr noundef %26, i64 noundef %27)
  %28 = load ptr, ptr %5, align 8
  %29 = load i32, ptr %7, align 4
  %30 = call ptr @ReadRecord(ptr noundef %28, i32 noundef 15, i1 noundef zeroext true, i32 noundef %29)
  store ptr %30, ptr %8, align 8
  %31 = load ptr, ptr %8, align 8
  %32 = icmp eq ptr %31, null
  br i1 %32, label %33, label %44

33:                                               ; preds = %25
  br label %34

34:                                               ; preds = %33
  br i1 false, label %35, label %37

35:                                               ; preds = %34
  %36 = call zeroext i1 @errstart_cold(i32 noundef 15, ptr noundef null) #15
  br i1 %36, label %39, label %41

37:                                               ; preds = %34
  %38 = call zeroext i1 @errstart(i32 noundef 15, ptr noundef null)
  br i1 %38, label %39, label %41

39:                                               ; preds = %37, %35
  %40 = call i32 (ptr, ...) @errmsg(ptr noundef @.str.180)
  call void @errfinish(ptr noundef @.str.6, i32 noundef 4084, ptr noundef @__func__.ReadCheckpointRecord)
  br label %41

41:                                               ; preds = %39, %37, %35
  br label %42

42:                                               ; preds = %41
  br label %43

43:                                               ; preds = %42
  store ptr null, ptr %4, align 8
  store i32 1, ptr %10, align 4
  br label %105

44:                                               ; preds = %25
  %45 = load ptr, ptr %8, align 8
  %46 = getelementptr inbounds nuw %struct.XLogRecord, ptr %45, i32 0, i32 4
  %47 = load i8, ptr %46, align 1
  %48 = zext i8 %47 to i32
  %49 = icmp ne i32 %48, 0
  br i1 %49, label %50, label %61

50:                                               ; preds = %44
  br label %51

51:                                               ; preds = %50
  br i1 false, label %52, label %54

52:                                               ; preds = %51
  %53 = call zeroext i1 @errstart_cold(i32 noundef 15, ptr noundef null) #15
  br i1 %53, label %56, label %58

54:                                               ; preds = %51
  %55 = call zeroext i1 @errstart(i32 noundef 15, ptr noundef null)
  br i1 %55, label %56, label %58

56:                                               ; preds = %54, %52
  %57 = call i32 (ptr, ...) @errmsg(ptr noundef @.str.181)
  call void @errfinish(ptr noundef @.str.6, i32 noundef 4090, ptr noundef @__func__.ReadCheckpointRecord)
  br label %58

58:                                               ; preds = %56, %54, %52
  br label %59

59:                                               ; preds = %58
  br label %60

60:                                               ; preds = %59
  store ptr null, ptr %4, align 8
  store i32 1, ptr %10, align 4
  br label %105

61:                                               ; preds = %44
  %62 = load ptr, ptr %8, align 8
  %63 = getelementptr inbounds nuw %struct.XLogRecord, ptr %62, i32 0, i32 3
  %64 = load i8, ptr %63, align 8
  %65 = zext i8 %64 to i32
  %66 = and i32 %65, -16
  %67 = trunc i32 %66 to i8
  store i8 %67, ptr %9, align 1
  %68 = load i8, ptr %9, align 1
  %69 = zext i8 %68 to i32
  %70 = icmp ne i32 %69, 0
  br i1 %70, label %71, label %86

71:                                               ; preds = %61
  %72 = load i8, ptr %9, align 1
  %73 = zext i8 %72 to i32
  %74 = icmp ne i32 %73, 16
  br i1 %74, label %75, label %86

75:                                               ; preds = %71
  br label %76

76:                                               ; preds = %75
  br i1 false, label %77, label %79

77:                                               ; preds = %76
  %78 = call zeroext i1 @errstart_cold(i32 noundef 15, ptr noundef null) #15
  br i1 %78, label %81, label %83

79:                                               ; preds = %76
  %80 = call zeroext i1 @errstart(i32 noundef 15, ptr noundef null)
  br i1 %80, label %81, label %83

81:                                               ; preds = %79, %77
  %82 = call i32 (ptr, ...) @errmsg(ptr noundef @.str.182)
  call void @errfinish(ptr noundef @.str.6, i32 noundef 4098, ptr noundef @__func__.ReadCheckpointRecord)
  br label %83

83:                                               ; preds = %81, %79, %77
  br label %84

84:                                               ; preds = %83
  br label %85

85:                                               ; preds = %84
  store ptr null, ptr %4, align 8
  store i32 1, ptr %10, align 4
  br label %105

86:                                               ; preds = %71, %61
  %87 = load ptr, ptr %8, align 8
  %88 = getelementptr inbounds nuw %struct.XLogRecord, ptr %87, i32 0, i32 0
  %89 = load i32, ptr %88, align 8
  %90 = zext i32 %89 to i64
  %91 = icmp ne i64 %90, 114
  br i1 %91, label %92, label %103

92:                                               ; preds = %86
  br label %93

93:                                               ; preds = %92
  br i1 false, label %94, label %96

94:                                               ; preds = %93
  %95 = call zeroext i1 @errstart_cold(i32 noundef 15, ptr noundef null) #15
  br i1 %95, label %98, label %100

96:                                               ; preds = %93
  %97 = call zeroext i1 @errstart(i32 noundef 15, ptr noundef null)
  br i1 %97, label %98, label %100

98:                                               ; preds = %96, %94
  %99 = call i32 (ptr, ...) @errmsg(ptr noundef @.str.183)
  call void @errfinish(ptr noundef @.str.6, i32 noundef 4104, ptr noundef @__func__.ReadCheckpointRecord)
  br label %100

100:                                              ; preds = %98, %96, %94
  br label %101

101:                                              ; preds = %100
  br label %102

102:                                              ; preds = %101
  store ptr null, ptr %4, align 8
  store i32 1, ptr %10, align 4
  br label %105

103:                                              ; preds = %86
  %104 = load ptr, ptr %8, align 8
  store ptr %104, ptr %4, align 8
  store i32 1, ptr %10, align 4
  br label %105

105:                                              ; preds = %103, %102, %85, %60, %43, %24
  call void @llvm.lifetime.end.p0(i64 1, ptr %9) #14
  call void @llvm.lifetime.end.p0(i64 8, ptr %8) #14
  %106 = load ptr, ptr %4, align 8
  ret ptr %106
}