; Function Attrs: nounwind uwtable
define internal fastcc ptr @ReadCheckpointRecord(ptr noundef %0, i64 noundef %1, i32 noundef %2) unnamed_addr #2 {
  %4 = and i64 %1, 8184
  %5 = icmp samesign ugt i64 %4, 23
  br i1 %5, label %8, label %6

6:                                                ; preds = %3
  %7 = tail call zeroext i1 @errstart(i32 noundef 15, ptr noundef null) #23
  br i1 %7, label %.sink.split, label %28

8:                                                ; preds = %3
  tail call void @XLogPrefetcherBeginRead(ptr noundef %0, i64 noundef %1) #23
  %9 = tail call fastcc ptr @ReadRecord(ptr noundef %0, i32 noundef 15, i1 noundef zeroext true, i32 noundef %2)
  %10 = icmp eq ptr %9, null
  br i1 %10, label %11, label %13

11:                                               ; preds = %8
  %12 = tail call zeroext i1 @errstart(i32 noundef 15, ptr noundef null) #23
  br i1 %12, label %.sink.split, label %28

13:                                               ; preds = %8
  %14 = getelementptr inbounds nuw i8, ptr %9, i64 17
  %15 = load i8, ptr %14, align 1
  %.not = icmp eq i8 %15, 0
  br i1 %.not, label %18, label %16

16:                                               ; preds = %13
  %17 = tail call zeroext i1 @errstart(i32 noundef 15, ptr noundef null) #23
  br i1 %17, label %.sink.split, label %28

18:                                               ; preds = %13
  %19 = getelementptr inbounds nuw i8, ptr %9, i64 16
  %20 = load i8, ptr %19, align 8
  %or.cond.not = icmp ult i8 %20, 32
  br i1 %or.cond.not, label %23, label %21

21:                                               ; preds = %18
  %22 = tail call zeroext i1 @errstart(i32 noundef 15, ptr noundef null) #23
  br i1 %22, label %.sink.split, label %28

23:                                               ; preds = %18
  %24 = load i32, ptr %9, align 8
  %.not15 = icmp eq i32 %24, 114
  br i1 %.not15, label %28, label %25

25:                                               ; preds = %23
  %26 = tail call zeroext i1 @errstart(i32 noundef 15, ptr noundef null) #23
  br i1 %26, label %.sink.split, label %28

.sink.split:                                      ; preds = %25, %21, %16, %11, %6
  %.str.183.sink = phi ptr [ @.str.179, %6 ], [ @.str.180, %11 ], [ @.str.181, %16 ], [ @.str.182, %21 ], [ @.str.183, %25 ]
  %.sink = phi i32 [ 4074, %6 ], [ 4084, %11 ], [ 4090, %16 ], [ 4098, %21 ], [ 4104, %25 ]
  %27 = tail call i32 (ptr, ...) @errmsg(ptr noundef nonnull %.str.183.sink) #23
  tail call void @errfinish(ptr noundef nonnull @.str.6, i32 noundef %.sink, ptr noundef nonnull @__func__.ReadCheckpointRecord) #23
  br label %28

28:                                               ; preds = %.sink.split, %23, %25, %21, %16, %11, %6
  %.0 = phi ptr [ null, %6 ], [ null, %11 ], [ null, %16 ], [ null, %21 ], [ null, %25 ], [ %9, %23 ], [ null, %.sink.split ]
  ret ptr %.0
}